; Function Attrs: nounwind uwtable
define ptr @l___private_Lean_Parser_Extension_0__Lean_Parser_withNamespaces(ptr noundef %0, i8 noundef zeroext %1, ptr noundef %2, ptr noundef %3, ptr noundef %4) local_unnamed_addr #1 {
  tail call void @lean_inc_heartbeat() #6
  %6 = tail call noalias ptr @mi_malloc_small(i64 noundef 40) #6
  %7 = icmp eq ptr %6, null
  br i1 %7, label %8, label %lean_alloc_closure.exit

8:                                                ; preds = %5
  tail call void @lean_internal_panic_out_of_memory() #7
  unreachable

lean_alloc_closure.exit:                          ; preds = %5
  %9 = zext i8 %1 to i64
  %10 = shl nuw nsw i64 %9, 1
  %11 = or disjoint i64 %10, 1
  %12 = inttoptr i64 %11 to ptr
  %13 = getelementptr inbounds nuw i8, ptr %6, i64 4
  store i32 1, ptr %6, align 4, !tbaa !4
  store i32 -184549336, ptr %13, align 4
  %14 = getelementptr inbounds nuw i8, ptr %6, i64 8
  store ptr @l___private_Lean_Parser_Extension_0__Lean_Parser_withNamespaces___lambda__1___boxed, ptr %14, align 8, !tbaa !9
  %15 = getelementptr inbounds nuw i8, ptr %6, i64 16
  store i16 3, ptr %15, align 8, !tbaa !14
  %16 = getelementptr inbounds nuw i8, ptr %6, i64 18
  store i16 2, ptr %16, align 2, !tbaa !14
  %17 = getelementptr inbounds nuw i8, ptr %6, i64 24
  store ptr %0, ptr %17, align 8, !tbaa !9
  %18 = getelementptr inbounds nuw i8, ptr %6, i64 32
  store ptr %12, ptr %18, align 8, !tbaa !9
  %19 = tail call ptr @l_Lean_Parser_adaptUncacheableContextFn(ptr noundef nonnull %6, ptr noundef %2, ptr noundef %3, ptr noundef %4) #6
  ret ptr %19
}